target datalayout = "e-m:e-p270:32:32-p271:32:32-p272:64:64-i64:64-i128:128-f80:128-n8:16:32:64-S128"
target triple = "x86_64-pc-linux-gnu"

; Function Attrs: nounwind uwtable
define internal i64 @gf2_matrix_times(ptr noundef %0, i64 noundef %1) #0 {
  %3 = alloca ptr, align 8
  %4 = alloca i64, align 8
  %5 = alloca i64, align 8
  store ptr %0, ptr %3, align 8
  store i64 %1, ptr %4, align 8
  store i64 0, ptr %5, align 8
  br label %6

6:                                                ; preds = %18, %2
  %7 = load i64, ptr %4, align 8
  %8 = icmp ne i64 %7, 0
  br i1 %8, label %9, label %23

9:                                                ; preds = %6
  %10 = load i64, ptr %4, align 8
  %11 = and i64 %10, 1
  %12 = icmp ne i64 %11, 0
  br i1 %12, label %13, label %18

13:                                               ; preds = %9
  %14 = load ptr, ptr %3, align 8
  %15 = load i64, ptr %14, align 8
  %16 = load i64, ptr %5, align 8
  %17 = xor i64 %16, %15
  store i64 %17, ptr %5, align 8
  br label %18

18:                                               ; preds = %13, %9
  %19 = load i64, ptr %4, align 8
  %20 = lshr i64 %19, 1
  store i64 %20, ptr %4, align 8
  %21 = load ptr, ptr %3, align 8
  %22 = getelementptr inbounds i64, ptr %21, i32 1
  store ptr %22, ptr %3, align 8
  br label %6, !llvm.loop !16

23:                                               ; preds = %6
  %24 = load i64, ptr %5, align 8
  ret i64 %24
}

; Function Attrs: nounwind uwtable
define internal void @gf2_matrix_square(ptr noundef %0, ptr noundef %1) #0 {
  %3 = alloca ptr, align 8
  %4 = alloca ptr, align 8
  %5 = alloca i32, align 4
  store ptr %0, ptr %3, align 8
  store ptr %1, ptr %4, align 8
  store i32 0, ptr %5, align 4
  br label %6

6:                                                ; preds = %21, %2
  %7 = load i32, ptr %5, align 4
  %8 = icmp slt i32 %7, 32
  br i1 %8, label %9, label %24

9:                                                ; preds = %6
  %10 = load ptr, ptr %4, align 8
  %11 = load ptr, ptr %4, align 8
  %12 = load i32, ptr %5, align 4
  %13 = sext i32 %12 to i64
  %14 = getelementptr inbounds i64, ptr %11, i64 %13
  %15 = load i64, ptr %14, align 8
  %16 = call i64 @gf2_matrix_times(ptr noundef %10, i64 noundef %15)
  %17 = load ptr, ptr %3, align 8
  %18 = load i32, ptr %5, align 4
  %19 = sext i32 %18 to i64
  %20 = getelementptr inbounds i64, ptr %17, i64 %19
  store i64 %16, ptr %20, align 8
  br label %21

21:                                               ; preds = %9
  %22 = load i32, ptr %5, align 4
  %23 = add nsw i32 %22, 1
  store i32 %23, ptr %5, align 4
  br label %6, !llvm.loop !15

24:                                               ; preds = %6
  ret void
}

; Function Attrs: nounwind uwtable
define internal i64 @crc32_combine_(i64 noundef %0, i64 noundef %1, i64 noundef %2) #0 {
  %4 = alloca i64, align 8
  %5 = alloca i64, align 8
  %6 = alloca i64, align 8
  %7 = alloca i64, align 8
  %8 = alloca i32, align 4
  %9 = alloca i64, align 8
  %10 = alloca [32 x i64], align 16
  %11 = alloca [32 x i64], align 16
  store i64 %0, ptr %5, align 8
  store i64 %1, ptr %6, align 8
  store i64 %2, ptr %7, align 8
  %12 = load i64, ptr %7, align 8
  %13 = icmp sle i64 %12, 0
  br i1 %13, label %14, label %16

14:                                               ; preds = %3
  %15 = load i64, ptr %5, align 8
  store i64 %15, ptr %4, align 8
  br label %73

16:                                               ; preds = %3
  %17 = getelementptr inbounds [32 x i64], ptr %11, i64 0, i64 0
  store i64 3988292384, ptr %17, align 16
  store i64 1, ptr %9, align 8
  store i32 1, ptr %8, align 4
  br label %18

18:                                               ; preds = %28, %16
  %19 = load i32, ptr %8, align 4
  %20 = icmp slt i32 %19, 32
  br i1 %20, label %21, label %31

21:                                               ; preds = %18
  %22 = load i64, ptr %9, align 8
  %23 = load i32, ptr %8, align 4
  %24 = sext i32 %23 to i64
  %25 = getelementptr inbounds [32 x i64], ptr %11, i64 0, i64 %24
  store i64 %22, ptr %25, align 8
  %26 = load i64, ptr %9, align 8
  %27 = shl i64 %26, 1
  store i64 %27, ptr %9, align 8
  br label %28

28:                                               ; preds = %21
  %29 = load i32, ptr %8, align 4
  %30 = add nsw i32 %29, 1
  store i32 %30, ptr %8, align 4
  br label %18, !llvm.loop !13

31:                                               ; preds = %18
  %32 = getelementptr inbounds [32 x i64], ptr %10, i64 0, i64 0
  %33 = getelementptr inbounds [32 x i64], ptr %11, i64 0, i64 0
  call void @gf2_matrix_square(ptr noundef %32, ptr noundef %33)
  %34 = getelementptr inbounds [32 x i64], ptr %11, i64 0, i64 0
  %35 = getelementptr inbounds [32 x i64], ptr %10, i64 0, i64 0
  call void @gf2_matrix_square(ptr noundef %34, ptr noundef %35)
  br label %36

36:                                               ; preds = %65, %31
  %37 = getelementptr inbounds [32 x i64], ptr %10, i64 0, i64 0
  %38 = getelementptr inbounds [32 x i64], ptr %11, i64 0, i64 0
  call void @gf2_matrix_square(ptr noundef %37, ptr noundef %38)
  %39 = load i64, ptr %7, align 8
  %40 = and i64 %39, 1
  %41 = icmp ne i64 %40, 0
  br i1 %41, label %42, label %46

42:                                               ; preds = %36
  %43 = getelementptr inbounds [32 x i64], ptr %10, i64 0, i64 0
  %44 = load i64, ptr %5, align 8
  %45 = call i64 @gf2_matrix_times(ptr noundef %43, i64 noundef %44)
  store i64 %45, ptr %5, align 8
  br label %46

46:                                               ; preds = %42, %36
  %47 = load i64, ptr %7, align 8
  %48 = ashr i64 %47, 1
  store i64 %48, ptr %7, align 8
  %49 = load i64, ptr %7, align 8
  %50 = icmp eq i64 %49, 0
  br i1 %50, label %51, label %52

51:                                               ; preds = %46
  br label %68

52:                                               ; preds = %46
  %53 = getelementptr inbounds [32 x i64], ptr %11, i64 0, i64 0
  %54 = getelementptr inbounds [32 x i64], ptr %10, i64 0, i64 0
  call void @gf2_matrix_square(ptr noundef %53, ptr noundef %54)
  %55 = load i64, ptr %7, align 8
  %56 = and i64 %55, 1
  %57 = icmp ne i64 %56, 0
  br i1 %57, label %58, label %62

58:                                               ; preds = %52
  %59 = getelementptr inbounds [32 x i64], ptr %11, i64 0, i64 0
  %60 = load i64, ptr %5, align 8
  %61 = call i64 @gf2_matrix_times(ptr noundef %59, i64 noundef %60)
  store i64 %61, ptr %5, align 8
  br label %62

62:                                               ; preds = %58, %52
  %63 = load i64, ptr %7, align 8
  %64 = ashr i64 %63, 1
  store i64 %64, ptr %7, align 8
  br label %65

65:                                               ; preds = %62
  %66 = load i64, ptr %7, align 8
  %67 = icmp ne i64 %66, 0
  br i1 %67, label %36, label %68, !llvm.loop !14

68:                                               ; preds = %65, %51
  %69 = load i64, ptr %6, align 8
  %70 = load i64, ptr %5, align 8
  %71 = xor i64 %70, %69
  store i64 %71, ptr %5, align 8
  %72 = load i64, ptr %5, align 8
  store i64 %72, ptr %4, align 8
  br label %73

73:                                               ; preds = %68, %14
  %74 = load i64, ptr %4, align 8
  ret i64 %74
}