; Function Attrs: nofree norecurse nosync nounwind memory(none) uwtable
define internal fastcc i64 @crc32_combine_(i64 noundef %0, i64 noundef %1, i64 noundef %2) unnamed_addr #2 {
  %4 = alloca [32 x i64], align 16
  %5 = alloca [32 x i64], align 16
  %6 = icmp slt i64 %2, 1
  br i1 %6, label %74, label %7

7:                                                ; preds = %3
  store i64 3988292384, ptr %5, align 16
  br label %8

8:                                                ; preds = %7, %8
  %indvars.iv = phi i64 [ 1, %7 ], [ %indvars.iv.next, %8 ]
  %.082 = phi i64 [ 1, %7 ], [ %10, %8 ]
  %9 = getelementptr inbounds [32 x i64], ptr %5, i64 0, i64 %indvars.iv
  store i64 %.082, ptr %9, align 8
  %10 = shl i64 %.082, 1
  %indvars.iv.next = add nuw nsw i64 %indvars.iv, 1
  %exitcond.not = icmp eq i64 %indvars.iv.next, 32
  br i1 %exitcond.not, label %.preheader80, label %8, !llvm.loop !9

.preheader80:                                     ; preds = %8, %gf2_matrix_times.exit.i
  %indvars.iv.i = phi i64 [ %indvars.iv.next.i, %gf2_matrix_times.exit.i ], [ 0, %8 ]
  %11 = getelementptr inbounds i64, ptr %5, i64 %indvars.iv.i
  %12 = load i64, ptr %11, align 8
  %.not9.i.i = icmp eq i64 %12, 0
  br i1 %.not9.i.i, label %gf2_matrix_times.exit.i, label %.lr.ph.i.i

.lr.ph.i.i:                                       ; preds = %.preheader80, %17
  %.012.i.i = phi i64 [ %.1.i.i, %17 ], [ 0, %.preheader80 ]
  %.0611.i.i = phi i64 [ %18, %17 ], [ %12, %.preheader80 ]
  %.0710.i.i = phi ptr [ %19, %17 ], [ %5, %.preheader80 ]
  %13 = and i64 %.0611.i.i, 1
  %.not8.i.i = icmp eq i64 %13, 0
  br i1 %.not8.i.i, label %17, label %14

14:                                               ; preds = %.lr.ph.i.i
  %15 = load i64, ptr %.0710.i.i, align 8
  %16 = xor i64 %15, %.012.i.i
  br label %17

17:                                               ; preds = %14, %.lr.ph.i.i
  %.1.i.i = phi i64 [ %16, %14 ], [ %.012.i.i, %.lr.ph.i.i ]
  %18 = lshr i64 %.0611.i.i, 1
  %19 = getelementptr inbounds i8, ptr %.0710.i.i, i64 8
  %.not.i.i = icmp ult i64 %.0611.i.i, 2
  br i1 %.not.i.i, label %gf2_matrix_times.exit.i, label %.lr.ph.i.i, !llvm.loop !10

gf2_matrix_times.exit.i:                          ; preds = %17, %.preheader80
  %.0.lcssa.i.i = phi i64 [ 0, %.preheader80 ], [ %.1.i.i, %17 ]
  %20 = getelementptr inbounds i64, ptr %4, i64 %indvars.iv.i
  store i64 %.0.lcssa.i.i, ptr %20, align 8
  %indvars.iv.next.i = add nuw nsw i64 %indvars.iv.i, 1
  %exitcond.not.i = icmp eq i64 %indvars.iv.next.i, 32
  br i1 %exitcond.not.i, label %gf2_matrix_square.exit, label %.preheader80, !llvm.loop !11

gf2_matrix_square.exit:                           ; preds = %gf2_matrix_times.exit.i, %gf2_matrix_times.exit.i37
  %indvars.iv.i28 = phi i64 [ %indvars.iv.next.i39, %gf2_matrix_times.exit.i37 ], [ 0, %gf2_matrix_times.exit.i ]
  %21 = getelementptr inbounds i64, ptr %4, i64 %indvars.iv.i28
  %22 = load i64, ptr %21, align 8
  %.not9.i.i29 = icmp eq i64 %22, 0
  br i1 %.not9.i.i29, label %gf2_matrix_times.exit.i37, label %.lr.ph.i.i30

.lr.ph.i.i30:                                     ; preds = %gf2_matrix_square.exit, %27
  %.012.i.i31 = phi i64 [ %.1.i.i35, %27 ], [ 0, %gf2_matrix_square.exit ]
  %.0611.i.i32 = phi i64 [ %28, %27 ], [ %22, %gf2_matrix_square.exit ]
  %.0710.i.i33 = phi ptr [ %29, %27 ], [ %4, %gf2_matrix_square.exit ]
  %23 = and i64 %.0611.i.i32, 1
  %.not8.i.i34 = icmp eq i64 %23, 0
  br i1 %.not8.i.i34, label %27, label %24

24:                                               ; preds = %.lr.ph.i.i30
  %25 = load i64, ptr %.0710.i.i33, align 8
  %26 = xor i64 %25, %.012.i.i31
  br label %27

27:                                               ; preds = %24, %.lr.ph.i.i30
  %.1.i.i35 = phi i64 [ %26, %24 ], [ %.012.i.i31, %.lr.ph.i.i30 ]
  %28 = lshr i64 %.0611.i.i32, 1
  %29 = getelementptr inbounds i8, ptr %.0710.i.i33, i64 8
  %.not.i.i36 = icmp ult i64 %.0611.i.i32, 2
  br i1 %.not.i.i36, label %gf2_matrix_times.exit.i37, label %.lr.ph.i.i30, !llvm.loop !10

gf2_matrix_times.exit.i37:                        ; preds = %27, %gf2_matrix_square.exit
  %.0.lcssa.i.i38 = phi i64 [ 0, %gf2_matrix_square.exit ], [ %.1.i.i35, %27 ]
  %30 = getelementptr inbounds i64, ptr %5, i64 %indvars.iv.i28
  store i64 %.0.lcssa.i.i38, ptr %30, align 8
  %indvars.iv.next.i39 = add nuw nsw i64 %indvars.iv.i28, 1
  %exitcond.not.i40 = icmp eq i64 %indvars.iv.next.i39, 32
  br i1 %exitcond.not.i40, label %gf2_matrix_square.exit41, label %gf2_matrix_square.exit, !llvm.loop !11

gf2_matrix_square.exit41:                         ; preds = %gf2_matrix_times.exit.i37, %gf2_matrix_times.exit79
  %.022 = phi i64 [ %.2, %gf2_matrix_times.exit79 ], [ %0, %gf2_matrix_times.exit.i37 ]
  %.020 = phi i64 [ %51, %gf2_matrix_times.exit79 ], [ %2, %gf2_matrix_times.exit.i37 ]
  br label %31

31:                                               ; preds = %gf2_matrix_times.exit.i51, %gf2_matrix_square.exit41
  %indvars.iv.i42 = phi i64 [ 0, %gf2_matrix_square.exit41 ], [ %indvars.iv.next.i53, %gf2_matrix_times.exit.i51 ]
  %32 = getelementptr inbounds i64, ptr %5, i64 %indvars.iv.i42
  %33 = load i64, ptr %32, align 8
  %.not9.i.i43 = icmp eq i64 %33, 0
  br i1 %.not9.i.i43, label %gf2_matrix_times.exit.i51, label %.lr.ph.i.i44

.lr.ph.i.i44:                                     ; preds = %31, %38
  %.012.i.i45 = phi i64 [ %.1.i.i49, %38 ], [ 0, %31 ]
  %.0611.i.i46 = phi i64 [ %39, %38 ], [ %33, %31 ]
  %.0710.i.i47 = phi ptr [ %40, %38 ], [ %5, %31 ]
  %34 = and i64 %.0611.i.i46, 1
  %.not8.i.i48 = icmp eq i64 %34, 0
  br i1 %.not8.i.i48, label %38, label %35

35:                                               ; preds = %.lr.ph.i.i44
  %36 = load i64, ptr %.0710.i.i47, align 8
  %37 = xor i64 %36, %.012.i.i45
  br label %38

38:                                               ; preds = %35, %.lr.ph.i.i44
  %.1.i.i49 = phi i64 [ %37, %35 ], [ %.012.i.i45, %.lr.ph.i.i44 ]
  %39 = lshr i64 %.0611.i.i46, 1
  %40 = getelementptr inbounds i8, ptr %.0710.i.i47, i64 8
  %.not.i.i50 = icmp ult i64 %.0611.i.i46, 2
  br i1 %.not.i.i50, label %gf2_matrix_times.exit.i51, label %.lr.ph.i.i44, !llvm.loop !10

gf2_matrix_times.exit.i51:                        ; preds = %38, %31
  %.0.lcssa.i.i52 = phi i64 [ 0, %31 ], [ %.1.i.i49, %38 ]
  %41 = getelementptr inbounds i64, ptr %4, i64 %indvars.iv.i42
  store i64 %.0.lcssa.i.i52, ptr %41, align 8
  %indvars.iv.next.i53 = add nuw nsw i64 %indvars.iv.i42, 1
  %exitcond.not.i54 = icmp eq i64 %indvars.iv.next.i53, 32
  br i1 %exitcond.not.i54, label %gf2_matrix_square.exit55, label %31, !llvm.loop !11

gf2_matrix_square.exit55:                         ; preds = %gf2_matrix_times.exit.i51
  %42 = and i64 %.020, 1
  %.not = icmp eq i64 %42, 0
  br i1 %.not, label %gf2_matrix_times.exit, label %43

43:                                               ; preds = %gf2_matrix_square.exit55
  %.not9.i = icmp eq i64 %.022, 0
  br i1 %.not9.i, label %gf2_matrix_times.exit, label %.lr.ph.i

.lr.ph.i:                                         ; preds = %43, %48
  %.012.i = phi i64 [ %.1.i, %48 ], [ 0, %43 ]
  %.0611.i = phi i64 [ %49, %48 ], [ %.022, %43 ]
  %.0710.i = phi ptr [ %50, %48 ], [ %4, %43 ]
  %44 = and i64 %.0611.i, 1
  %.not8.i = icmp eq i64 %44, 0
  br i1 %.not8.i, label %48, label %45

45:                                               ; preds = %.lr.ph.i
  %46 = load i64, ptr %.0710.i, align 8
  %47 = xor i64 %46, %.012.i
  br label %48

48:                                               ; preds = %45, %.lr.ph.i
  %.1.i = phi i64 [ %47, %45 ], [ %.012.i, %.lr.ph.i ]
  %49 = lshr i64 %.0611.i, 1
  %50 = getelementptr inbounds i8, ptr %.0710.i, i64 8
  %.not.i = icmp ult i64 %.0611.i, 2
  br i1 %.not.i, label %gf2_matrix_times.exit, label %.lr.ph.i, !llvm.loop !10

gf2_matrix_times.exit:                            ; preds = %48, %43, %gf2_matrix_square.exit55
  %.1 = phi i64 [ %.022, %gf2_matrix_square.exit55 ], [ 0, %43 ], [ %.1.i, %48 ]
  %51 = lshr i64 %.020, 2
  %52 = icmp ult i64 %.020, 2
  br i1 %52, label %72, label %.preheader

.preheader:                                       ; preds = %gf2_matrix_times.exit, %gf2_matrix_times.exit.i65
  %indvars.iv.i56 = phi i64 [ %indvars.iv.next.i67, %gf2_matrix_times.exit.i65 ], [ 0, %gf2_matrix_times.exit ]
  %53 = getelementptr inbounds i64, ptr %4, i64 %indvars.iv.i56
  %54 = load i64, ptr %53, align 8
  %.not9.i.i57 = icmp eq i64 %54, 0
  br i1 %.not9.i.i57, label %gf2_matrix_times.exit.i65, label %.lr.ph.i.i58

.lr.ph.i.i58:                                     ; preds = %.preheader, %59
  %.012.i.i59 = phi i64 [ %.1.i.i63, %59 ], [ 0, %.preheader ]
  %.0611.i.i60 = phi i64 [ %60, %59 ], [ %54, %.preheader ]
  %.0710.i.i61 = phi ptr [ %61, %59 ], [ %4, %.preheader ]
  %55 = and i64 %.0611.i.i60, 1
  %.not8.i.i62 = icmp eq i64 %55, 0
  br i1 %.not8.i.i62, label %59, label %56

56:                                               ; preds = %.lr.ph.i.i58
  %57 = load i64, ptr %.0710.i.i61, align 8
  %58 = xor i64 %57, %.012.i.i59
  br label %59

59:                                               ; preds = %56, %.lr.ph.i.i58
  %.1.i.i63 = phi i64 [ %58, %56 ], [ %.012.i.i59, %.lr.ph.i.i58 ]
  %60 = lshr i64 %.0611.i.i60, 1
  %61 = getelementptr inbounds i8, ptr %.0710.i.i61, i64 8
  %.not.i.i64 = icmp ult i64 %.0611.i.i60, 2
  br i1 %.not.i.i64, label %gf2_matrix_times.exit.i65, label %.lr.ph.i.i58, !llvm.loop !10

gf2_matrix_times.exit.i65:                        ; preds = %59, %.preheader
  %.0.lcssa.i.i66 = phi i64 [ 0, %.preheader ], [ %.1.i.i63, %59 ]
  %62 = getelementptr inbounds i64, ptr %5, i64 %indvars.iv.i56
  store i64 %.0.lcssa.i.i66, ptr %62, align 8
  %indvars.iv.next.i67 = add nuw nsw i64 %indvars.iv.i56, 1
  %exitcond.not.i68 = icmp eq i64 %indvars.iv.next.i67, 32
  br i1 %exitcond.not.i68, label %gf2_matrix_square.exit69, label %.preheader, !llvm.loop !11

gf2_matrix_square.exit69:                         ; preds = %gf2_matrix_times.exit.i65
  %63 = and i64 %.020, 2
  %.not26 = icmp eq i64 %63, 0
  br i1 %.not26, label %gf2_matrix_times.exit79, label %64

64:                                               ; preds = %gf2_matrix_square.exit69
  %.not9.i70 = icmp eq i64 %.1, 0
  br i1 %.not9.i70, label %gf2_matrix_times.exit79, label %.lr.ph.i71

.lr.ph.i71:                                       ; preds = %64, %69
  %.012.i72 = phi i64 [ %.1.i76, %69 ], [ 0, %64 ]
  %.0611.i73 = phi i64 [ %70, %69 ], [ %.1, %64 ]
  %.0710.i74 = phi ptr [ %71, %69 ], [ %5, %64 ]
  %65 = and i64 %.0611.i73, 1
  %.not8.i75 = icmp eq i64 %65, 0
  br i1 %.not8.i75, label %69, label %66

66:                                               ; preds = %.lr.ph.i71
  %67 = load i64, ptr %.0710.i74, align 8
  %68 = xor i64 %67, %.012.i72
  br label %69

69:                                               ; preds = %66, %.lr.ph.i71
  %.1.i76 = phi i64 [ %68, %66 ], [ %.012.i72, %.lr.ph.i71 ]
  %70 = lshr i64 %.0611.i73, 1
  %71 = getelementptr inbounds i8, ptr %.0710.i74, i64 8
  %.not.i77 = icmp ult i64 %.0611.i73, 2
  br i1 %.not.i77, label %gf2_matrix_times.exit79, label %.lr.ph.i71, !llvm.loop !10

gf2_matrix_times.exit79:                          ; preds = %69, %64, %gf2_matrix_square.exit69
  %.2 = phi i64 [ %.1, %gf2_matrix_square.exit69 ], [ 0, %64 ], [ %.1.i76, %69 ]
  %.not27 = icmp ult i64 %.020, 4
  br i1 %.not27, label %72, label %gf2_matrix_square.exit41, !llvm.loop !12

72:                                               ; preds = %gf2_matrix_times.exit, %gf2_matrix_times.exit79
  %.3 = phi i64 [ %.1, %gf2_matrix_times.exit ], [ %.2, %gf2_matrix_times.exit79 ]
  %73 = xor i64 %.3, %1
  br label %74

74:                                               ; preds = %3, %72
  %.021 = phi i64 [ %73, %72 ], [ %0, %3 ]
  ret i64 %.021
}